(dp1
S'output'
p2
S"<type 'exceptions.KeyError'> "
p3
sS'layer'
p4
S'/media/user/7A75-AAD4/Academic/Development/web2py/applications/yearbook_v3/views/default/home.html'
p5
sS'code'
p6
S'response.write("<!DOCTYPE html>\\n<html>\\n\\t<head>\\n\\t\\t<meta charset=\'utf-8\'>\\n\\t\\t<title>", escape=False)\nresponse.write(response.title or request.application)\nresponse.write(\'</title>\\n\\t\\t\', escape=False)\nresponse.write(\'\\n\\t\\t<link href=\\\'https://fonts.googleapis.com/css?family=Dancing+Script\\\' rel=\\\'stylesheet\\\' type=\\\'text/css\\\'>\\n\\t\\t<link href="\', escape=False)\nresponse.write(URL(\'static\', \'css/web2py.css\'))\nresponse.write(\'" rel=\\\'stylesheet\\\'>\\n\\t\\t<link href="\', escape=False)\nresponse.write(URL(\'static\', \'css/header.css\'))\nresponse.write(\'" rel=\\\'stylesheet\\\'>\\n\\t\\t\', escape=False)\nresponse.write(\'\\n\\t\\t\', escape=False)\nresponse.write(\'<script type="text/javascript"><!--\\n    // These variables are used by the web2py_ajax_init function in web2py_ajax.js (which is loaded below).\\n    var w2p_ajax_confirm_message = "\', escape=False)\nresponse.write(T(\'Are you sure you want to delete this object?\'))\nresponse.write(\'";\\n    var w2p_ajax_disable_with_message = "\', escape=False)\nresponse.write(T(\'Working...\'))\nresponse.write(\'";\\n    var w2p_ajax_date_format = "\', escape=False)\nresponse.write(T(\'%Y-%m-%d\'))\nresponse.write(\'";\\n    var w2p_ajax_datetime_format = "\', escape=False)\nresponse.write(T(\'%Y-%m-%d %H:%M:%S\'))\nresponse.write(\'";\\n    var ajax_error_500 = \\\'\', escape=False)\nresponse.write(T.M(\'An error occured, please [[reload %s]] the page\') % URL(args=request.args, vars=request.get_vars))\nresponse.write("\'\\n    //--></script>\\n", escape=False)\nresponse.files.insert(0,URL(\'static\',\'js/jquery.js\'))\nresponse.files.insert(1,URL(\'static\',\'css/calendar.css\'))\nresponse.files.insert(2,URL(\'static\',\'js/calendar.js\'))\nresponse.files.insert(3,URL(\'static\',\'js/web2py.js\'))\nresponse.include_meta()\nresponse.include_files()\nresponse.write(\'\\n\', escape=False)\nresponse.write(\'\\n\\t</head>\\n\\t<body>\\n\\t\\t<header>\\n\\t\\t\', escape=False)\nresponse.write(\'\\n    <a href="\', escape=False)\nresponse.write(URL(\'default\', \'home\'))\nresponse.write(\'">\\n        <div>\\n            <h1>\', escape=False)\nresponse.write(uni_record[\'name\'])\nresponse.write(\'</h1>\\n            <h3>\', escape=False)\nresponse.write(uni_record[\'motto\'])\nresponse.write(\'</h3>\\n        </div>\\n        <img></img>\\n    </a>\\n\', escape=False)\nresponse.write(\'\\n\\t\\t</header>\\n\\n\\t\\t\', escape=False)\nresponse.write(\'\\n\\n\', escape=False)\nresponse.write(\'\\n\\n<nav>\\n    <a href="\', escape=False)\nresponse.write(URL(\'default\', \'home\'))\nresponse.write(\'">Home</a>\\n    <a href="\', escape=False)\nresponse.write(URL(\'default\', \'event_list\'))\nresponse.write(\'">Event List</a>\\n    \', escape=False)\nif user_is_admin:\n    response.write(\'\\n    <a href="\', escape=False)\n    response.write(URL(\'default\', \'add_event\'))\n    response.write(\'">Add Event</a>\\n    \', escape=False)\nelse:\n    response.write(\'\\n    <a href="\', escape=False)\n    response.write(URL(\'default\', \'user_profile\'))\n    response.write(\'">Profile</a>\\n    \', escape=False)\n    pass\nresponse.write(\'\\n</nav>\\n\\n\', escape=False)\nresponse.write(\'\\n\\n<div>\\n    <h3>\', escape=False)\nresponse.write(uni_record[\'name\'])\nresponse.write(\'</h3>\\n    <p>\', escape=False)\nresponse.write(uni_record[\'message_field\'])\nresponse.write(\'</p>\\n    <div>\\n        <p>Contact us:<br>\', escape=False)\nresponse.write(uni_record[\'email\'])\nresponse.write(\'<br>\', escape=False)\nresponse.write(uni_record[\'address\'])\nresponse.write(\'</p>\\n    </div>\\n</div>\\n\\n\', escape=False)\nresponse.write(\'\\n\', escape=False)\nresponse.write("\\n    <!--nitin doesn\'t let rachna type anything-->\\n\\t</body>\\n</html>\\n", escape=False)'
p7
sS'snapshot'
p8
(dp9
sS'traceback'
p10
S'Traceback (most recent call last):\n  File "/media/user/7A75-AAD4/Academic/Development/web2py/gluon/restricted.py", line 227, in restricted\n    exec ccode in environment\n  File "/media/user/7A75-AAD4/Academic/Development/web2py/applications/yearbook_v3/views/default/home.html", line 34, in <module>\n  File "/media/user/7A75-AAD4/Academic/Development/web2py/gluon/packages/dal/pydal/objects.py", line 76, in __getitem__\n    raise KeyError\nKeyError\n'
p11
s.